target datalayout = "e-m:e-p270:32:32-p271:32:32-p272:64:64-i64:64-i128:128-f80:128-n8:16:32:64-S128"
target triple = "x86_64-unknown-linux-gnu"

%"class.std::__cxx11::basic_string" = type { %"struct.std::__cxx11::basic_string<char>::_Alloc_hider", i64, %union.anon }
%"struct.std::__cxx11::basic_string<char>::_Alloc_hider" = type { ptr }
%union.anon = type { i64, [8 x i8] }

@_ZN4YAMLL10TokenNamesB5cxx11E = internal global [20 x %"class.std::__cxx11::basic_string"] zeroinitializer, align 16

; Function Attrs: uwtable
define internal void @__cxx_global_array_dtor(ptr noundef %0) #0 section ".text.startup" {
entry:
  %.addr = alloca ptr, align 8
  store ptr %0, ptr %.addr, align 8
  %1 = getelementptr inbounds %"class.std::__cxx11::basic_string", ptr @_ZN4YAMLL10TokenNamesB5cxx11E, i64 20
  br label %arraydestroy.body

arraydestroy.body:                                ; preds = %arraydestroy.body, %entry
  %arraydestroy.elementPast = phi ptr [ %1, %entry ], [ %arraydestroy.element, %arraydestroy.body ]
  %arraydestroy.element = getelementptr inbounds %"class.std::__cxx11::basic_string", ptr %arraydestroy.elementPast, i64 -1
  call void @_ZNSt7__cxx1112basic_stringIcSt11char_traitsIcESaIcEED1Ev(ptr noundef nonnull align 8 dereferenceable(32) %arraydestroy.element) #3
  %arraydestroy.done = icmp eq ptr %arraydestroy.element, @_ZN4YAMLL10TokenNamesB5cxx11E
  br i1 %arraydestroy.done, label %arraydestroy.done1, label %arraydestroy.body

arraydestroy.done1:                               ; preds = %arraydestroy.body
  ret void
}